target datalayout = "e-m:e-p270:32:32-p271:32:32-p272:64:64-i64:64-i128:128-f80:128-n8:16:32:64-S128"
target triple = "x86_64-unknown-linux-gnu"

%"class.std::__cxx11::basic_string" = type { %"struct.std::__cxx11::basic_string<char>::_Alloc_hider", i64, %union.anon }
%"struct.std::__cxx11::basic_string<char>::_Alloc_hider" = type { ptr }
%union.anon = type { i64, [8 x i8] }
%"class.std::allocator.7" = type { i8 }
%"class.folly::basic_fbstring" = type { %"class.folly::fbstring_core" }
%"class.folly::fbstring_core" = type { %union.anon.15 }
%union.anon.15 = type { %"struct.folly::fbstring_core<char>::MediumLarge" }
%"struct.folly::fbstring_core<char>::MediumLarge" = type { ptr, i64, i64 }

; Function Attrs: mustprogress nounwind uwtable
define linkonce_odr noundef zeroext i8 @_ZNK5folly13fbstring_coreIcE8categoryEv(ptr noundef nonnull align 8 dereferenceable(24) %this) #1 comdat align 2 {
entry:
  %this.addr = alloca ptr, align 8
  store ptr %this, ptr %this.addr, align 8
  %this1 = load ptr, ptr %this.addr, align 8
  %0 = getelementptr inbounds %"class.folly::fbstring_core", ptr %this1, i32 0, i32 0
  %arrayidx = getelementptr inbounds [24 x i8], ptr %0, i64 0, i64 23
  %1 = load i8, ptr %arrayidx, align 1
  %conv = zext i8 %1 to i32
  %and = and i32 %conv, 192
  %conv2 = trunc i32 %and to i8
  ret i8 %conv2
}

; Function Attrs: mustprogress nounwind uwtable
define linkonce_odr noundef ptr @_ZNK5folly13fbstring_coreIcE5c_strEv(ptr noundef nonnull align 8 dereferenceable(24) %this) #1 comdat align 2 {
entry:
  %this.addr = alloca ptr, align 8
  %ptr = alloca ptr, align 8
  store ptr %this, ptr %this.addr, align 8
  %this1 = load ptr, ptr %this.addr, align 8
  %0 = getelementptr inbounds %"class.folly::fbstring_core", ptr %this1, i32 0, i32 0
  %data_ = getelementptr inbounds %"struct.folly::fbstring_core<char>::MediumLarge", ptr %0, i32 0, i32 0
  %1 = load ptr, ptr %data_, align 8
  store ptr %1, ptr %ptr, align 8
  %call = call noundef zeroext i8 @_ZNK5folly13fbstring_coreIcE8categoryEv(ptr noundef nonnull align 8 dereferenceable(24) %this1)
  %cmp = icmp eq i8 %call, 0
  br i1 %cmp, label %cond.true, label %cond.false

cond.true:                                        ; preds = %entry
  %2 = getelementptr inbounds %"class.folly::fbstring_core", ptr %this1, i32 0, i32 0
  %arraydecay = getelementptr inbounds [24 x i8], ptr %2, i64 0, i64 0
  br label %cond.end

cond.false:                                       ; preds = %entry
  %3 = load ptr, ptr %ptr, align 8
  br label %cond.end

cond.end:                                         ; preds = %cond.false, %cond.true
  %cond = phi ptr [ %arraydecay, %cond.true ], [ %3, %cond.false ]
  store ptr %cond, ptr %ptr, align 8
  %4 = load ptr, ptr %ptr, align 8
  ret ptr %4
}

; Function Attrs: mustprogress nounwind uwtable
define linkonce_odr noundef i64 @_ZNK5folly13fbstring_coreIcE4sizeEv(ptr noundef nonnull align 8 dereferenceable(24) %this) #1 comdat align 2 {
entry:
  %this.addr = alloca ptr, align 8
  %ret = alloca i64, align 8
  %maybeSmallSize = alloca i64, align 8
  store ptr %this, ptr %this.addr, align 8
  %this1 = load ptr, ptr %this.addr, align 8
  %0 = getelementptr inbounds %"class.folly::fbstring_core", ptr %this1, i32 0, i32 0
  %size_ = getelementptr inbounds %"struct.folly::fbstring_core<char>::MediumLarge", ptr %0, i32 0, i32 1
  %1 = load i64, ptr %size_, align 8
  store i64 %1, ptr %ret, align 8
  %2 = getelementptr inbounds %"class.folly::fbstring_core", ptr %this1, i32 0, i32 0
  %arrayidx = getelementptr inbounds [24 x i8], ptr %2, i64 0, i64 23
  %3 = load i8, ptr %arrayidx, align 1
  %conv = zext i8 %3 to i64
  %sub = sub i64 23, %conv
  store i64 %sub, ptr %maybeSmallSize, align 8
  %4 = load i64, ptr %maybeSmallSize, align 8
  %cmp = icmp sge i64 %4, 0
  br i1 %cmp, label %cond.true, label %cond.false

cond.true:                                        ; preds = %entry
  %5 = load i64, ptr %maybeSmallSize, align 8
  br label %cond.end

cond.false:                                       ; preds = %entry
  %6 = load i64, ptr %ret, align 8
  br label %cond.end

cond.end:                                         ; preds = %cond.false, %cond.true
  %cond = phi i64 [ %5, %cond.true ], [ %6, %cond.false ]
  store i64 %cond, ptr %ret, align 8
  %7 = load i64, ptr %ret, align 8
  ret i64 %7
}

; Function Attrs: mustprogress uwtable
define linkonce_odr noundef ptr @_ZNK5folly14basic_fbstringIcSt11char_traitsIcESaIcENS_13fbstring_coreIcEEE5c_strEv(ptr noundef nonnull align 8 dereferenceable(24) %this) #0 comdat align 2 {
entry:
  %this.addr = alloca ptr, align 8
  store ptr %this, ptr %this.addr, align 8
  %this1 = load ptr, ptr %this.addr, align 8
  %store_ = getelementptr inbounds %"class.folly::basic_fbstring", ptr %this1, i32 0, i32 0
  %call = call noundef ptr @_ZNK5folly13fbstring_coreIcE5c_strEv(ptr noundef nonnull align 8 dereferenceable(24) %store_)
  ret ptr %call
}

; Function Attrs: mustprogress uwtable
define linkonce_odr noundef i64 @_ZNK5folly14basic_fbstringIcSt11char_traitsIcESaIcENS_13fbstring_coreIcEEE4sizeEv(ptr noundef nonnull align 8 dereferenceable(24) %this) #0 comdat align 2 {
entry:
  %this.addr = alloca ptr, align 8
  store ptr %this, ptr %this.addr, align 8
  %this1 = load ptr, ptr %this.addr, align 8
  %store_ = getelementptr inbounds %"class.folly::basic_fbstring", ptr %this1, i32 0, i32 0
  %call = call noundef i64 @_ZNK5folly13fbstring_coreIcE4sizeEv(ptr noundef nonnull align 8 dereferenceable(24) %store_)
  ret i64 %call
}

; Function Attrs: mustprogress uwtable
define linkonce_odr noundef ptr @_ZNK5folly14basic_fbstringIcSt11char_traitsIcESaIcENS_13fbstring_coreIcEEE4dataEv(ptr noundef nonnull align 8 dereferenceable(24) %this) #0 comdat align 2 {
entry:
  %this.addr = alloca ptr, align 8
  store ptr %this, ptr %this.addr, align 8
  %this1 = load ptr, ptr %this.addr, align 8
  %call = call noundef ptr @_ZNK5folly14basic_fbstringIcSt11char_traitsIcESaIcENS_13fbstring_coreIcEEE5c_strEv(ptr noundef nonnull align 8 dereferenceable(24) %this1)
  ret ptr %call
}

; Function Attrs: mustprogress uwtable
define linkonce_odr void @_ZNK5folly14basic_fbstringIcSt11char_traitsIcESaIcENS_13fbstring_coreIcEEE11toStdStringB5cxx11Ev(ptr noalias sret(%"class.std::__cxx11::basic_string") align 8 %agg.result, ptr noundef nonnull align 8 dereferenceable(24) %this) #0 comdat align 2 personality ptr @__gxx_personality_v0 {
entry:
  %result.ptr = alloca ptr, align 8
  %this.addr = alloca ptr, align 8
  %ref.tmp = alloca %"class.std::allocator.7", align 1
  %exn.slot = alloca ptr, align 8
  %ehselector.slot = alloca i32, align 4
  store ptr %agg.result, ptr %result.ptr, align 8
  store ptr %this, ptr %this.addr, align 8
  %this1 = load ptr, ptr %this.addr, align 8
  %call = call noundef ptr @_ZNK5folly14basic_fbstringIcSt11char_traitsIcESaIcENS_13fbstring_coreIcEEE4dataEv(ptr noundef nonnull align 8 dereferenceable(24) %this1)
  %call2 = call noundef i64 @_ZNK5folly14basic_fbstringIcSt11char_traitsIcESaIcENS_13fbstring_coreIcEEE4sizeEv(ptr noundef nonnull align 8 dereferenceable(24) %this1)
  call void @_ZNSaIcEC1Ev(ptr noundef nonnull align 1 dereferenceable(1) %ref.tmp) #10
  invoke void @_ZNSt7__cxx1112basic_stringIcSt11char_traitsIcESaIcEEC1EPKcmRKS3_(ptr noundef nonnull align 8 dereferenceable(32) %agg.result, ptr noundef %call, i64 noundef %call2, ptr noundef nonnull align 1 dereferenceable(1) %ref.tmp)
          to label %invoke.cont unwind label %lpad

invoke.cont:                                      ; preds = %entry
  call void @_ZNSaIcED1Ev(ptr noundef nonnull align 1 dereferenceable(1) %ref.tmp) #10
  ret void

lpad:                                             ; preds = %entry
  %0 = landingpad { ptr, i32 }
          cleanup
  %1 = extractvalue { ptr, i32 } %0, 0
  store ptr %1, ptr %exn.slot, align 8
  %2 = extractvalue { ptr, i32 } %0, 1
  store i32 %2, ptr %ehselector.slot, align 4
  call void @_ZNSaIcED1Ev(ptr noundef nonnull align 1 dereferenceable(1) %ref.tmp) #10
  br label %eh.resume

eh.resume:                                        ; preds = %lpad
  %exn = load ptr, ptr %exn.slot, align 8
  %sel = load i32, ptr %ehselector.slot, align 4
  %lpad.val = insertvalue { ptr, i32 } poison, ptr %exn, 0
  %lpad.val3 = insertvalue { ptr, i32 } %lpad.val, i32 %sel, 1
  resume { ptr, i32 } %lpad.val3
}

; Function Attrs: mustprogress uwtable
define void @_ZN8facebook5velox7process10StackTrace8demangleB5cxx11EPKc(ptr noalias sret(%"class.std::__cxx11::basic_string") align 8 %agg.result, ptr noundef %mangled) #0 align 2 personality ptr @__gxx_personality_v0 {
entry:
  %result.ptr = alloca ptr, align 8
  %mangled.addr = alloca ptr, align 8
  %ref.tmp = alloca %"class.folly::basic_fbstring", align 8
  %exn.slot = alloca ptr, align 8
  %ehselector.slot = alloca i32, align 4
  store ptr %agg.result, ptr %result.ptr, align 8
  store ptr %mangled, ptr %mangled.addr, align 8
  %0 = load ptr, ptr %mangled.addr, align 8
  call void @_ZN5folly8demangleEPKc(ptr sret(%"class.folly::basic_fbstring") align 8 %ref.tmp, ptr noundef %0)
  invoke void @_ZNK5folly14basic_fbstringIcSt11char_traitsIcESaIcENS_13fbstring_coreIcEEE11toStdStringB5cxx11Ev(ptr sret(%"class.std::__cxx11::basic_string") align 8 %agg.result, ptr noundef nonnull align 8 dereferenceable(24) %ref.tmp)
          to label %invoke.cont unwind label %lpad

invoke.cont:                                      ; preds = %entry
  call void @_ZN5folly14basic_fbstringIcSt11char_traitsIcESaIcENS_13fbstring_coreIcEEED2Ev(ptr noundef nonnull align 8 dereferenceable(24) %ref.tmp) #10
  ret void

lpad:                                             ; preds = %entry
  %1 = landingpad { ptr, i32 }
          cleanup
  %2 = extractvalue { ptr, i32 } %1, 0
  store ptr %2, ptr %exn.slot, align 8
  %3 = extractvalue { ptr, i32 } %1, 1
  store i32 %3, ptr %ehselector.slot, align 4
  call void @_ZN5folly14basic_fbstringIcSt11char_traitsIcESaIcENS_13fbstring_coreIcEEED2Ev(ptr noundef nonnull align 8 dereferenceable(24) %ref.tmp) #10
  br label %eh.resume

eh.resume:                                        ; preds = %lpad
  %exn = load ptr, ptr %exn.slot, align 8
  %sel = load i32, ptr %ehselector.slot, align 4
  %lpad.val = insertvalue { ptr, i32 } poison, ptr %exn, 0
  %lpad.val1 = insertvalue { ptr, i32 } %lpad.val, i32 %sel, 1
  resume { ptr, i32 } %lpad.val1
}