; Function Attrs: mustprogress uwtable
define void @_ZN8facebook5velox7process10StackTrace8demangleB5cxx11EPKc(ptr noalias sret(%"class.std::__cxx11::basic_string") align 8 %agg.result, ptr noundef %mangled) local_unnamed_addr #0 align 2 personality ptr @__gxx_personality_v0 {
entry:
  %ref.tmp.i = alloca %"class.std::allocator.7", align 1
  %ref.tmp = alloca %"class.folly::basic_fbstring", align 8
  call void @_ZN5folly8demangleEPKc(ptr nonnull sret(%"class.folly::basic_fbstring") align 8 %ref.tmp, ptr noundef %mangled)
  call void @llvm.lifetime.start.p0(i64 1, ptr nonnull %ref.tmp.i)
  %0 = load ptr, ptr %ref.tmp, align 8, !noalias !20
  %arrayidx.i.i.i.i.i = getelementptr inbounds i8, ptr %ref.tmp, i64 23
  %1 = load i8, ptr %arrayidx.i.i.i.i.i, align 1, !noalias !20
  %cmp.i.i.i.i = icmp ult i8 %1, 64
  %cond.i.i.i.i = select i1 %cmp.i.i.i.i, ptr %ref.tmp, ptr %0
  %size_.i.i.i = getelementptr inbounds i8, ptr %ref.tmp, i64 8
  %2 = load i64, ptr %size_.i.i.i, align 8, !noalias !20
  %conv.i.i.i = zext i8 %1 to i64
  %sub.i.i.i = sub nsw i64 23, %conv.i.i.i
  %cmp.i.i.i = icmp ult i8 %1, 24
  %cond.i.i.i = select i1 %cmp.i.i.i, i64 %sub.i.i.i, i64 %2
  call void @_ZNSaIcEC1Ev(ptr noundef nonnull align 1 dereferenceable(1) %ref.tmp.i) #21, !noalias !20
  invoke void @_ZNSt7__cxx1112basic_stringIcSt11char_traitsIcESaIcEEC1EPKcmRKS3_(ptr noundef nonnull align 8 dereferenceable(32) %agg.result, ptr noundef %cond.i.i.i.i, i64 noundef %cond.i.i.i, ptr noundef nonnull align 1 dereferenceable(1) %ref.tmp.i)
          to label %invoke.cont unwind label %lpad.i

lpad.i:                                           ; preds = %entry
  %3 = landingpad { ptr, i32 }
          cleanup
  call void @_ZNSaIcED1Ev(ptr noundef nonnull align 1 dereferenceable(1) %ref.tmp.i) #21
  call void @_ZN5folly14basic_fbstringIcSt11char_traitsIcESaIcENS_13fbstring_coreIcEEED2Ev(ptr noundef nonnull align 8 dereferenceable(24) %ref.tmp) #21
  resume { ptr, i32 } %3

invoke.cont:                                      ; preds = %entry
  call void @_ZNSaIcED1Ev(ptr noundef nonnull align 1 dereferenceable(1) %ref.tmp.i) #21
  call void @llvm.lifetime.end.p0(i64 1, ptr nonnull %ref.tmp.i)
  %4 = load i8, ptr %arrayidx.i.i.i.i.i, align 1
  %5 = and i8 %4, -64
  %cmp.i.i = icmp eq i8 %5, 0
  br i1 %cmp.i.i, label %_ZN5folly14basic_fbstringIcSt11char_traitsIcESaIcENS_13fbstring_coreIcEEED2Ev.exit, label %if.end.i.i

if.end.i.i:                                       ; preds = %invoke.cont
  %cmp.i.i.i1 = icmp eq i8 %5, -128
  %6 = load ptr, ptr %ref.tmp, align 8
  br i1 %cmp.i.i.i1, label %if.then.i.i.i, label %if.else.i.i.i

if.then.i.i.i:                                    ; preds = %if.end.i.i
  call void @free(ptr noundef %6) #21
  br label %_ZN5folly14basic_fbstringIcSt11char_traitsIcESaIcENS_13fbstring_coreIcEEED2Ev.exit

if.else.i.i.i:                                    ; preds = %if.end.i.i
  %add.ptr.i.i.i.i.i = getelementptr inbounds i8, ptr %6, i64 -8
  %7 = atomicrmw sub ptr %add.ptr.i.i.i.i.i, i64 1 acq_rel, align 8
  %cmp.i.i.i.i2 = icmp eq i64 %7, 1
  br i1 %cmp.i.i.i.i2, label %if.then.i.i.i.i, label %_ZN5folly14basic_fbstringIcSt11char_traitsIcESaIcENS_13fbstring_coreIcEEED2Ev.exit

if.then.i.i.i.i:                                  ; preds = %if.else.i.i.i
  call void @free(ptr noundef nonnull %add.ptr.i.i.i.i.i) #21
  br label %_ZN5folly14basic_fbstringIcSt11char_traitsIcESaIcENS_13fbstring_coreIcEEED2Ev.exit

_ZN5folly14basic_fbstringIcSt11char_traitsIcESaIcENS_13fbstring_coreIcEEED2Ev.exit: ; preds = %invoke.cont, %if.then.i.i.i, %if.else.i.i.i, %if.then.i.i.i.i
  ret void
}